target datalayout = "e-m:e-p270:32:32-p271:32:32-p272:64:64-i64:64-i128:128-f80:128-n8:16:32:64-S128"
target triple = "x86_64-pc-linux-gnu"

%struct._object = type { i64, ptr }
%"struct.nanobind::dlpack::dtype" = type { i8, i8, i16 }
%"class.nanobind::handle" = type { ptr }
%"struct.nanobind::dlpack::dltensor" = type { ptr, %"struct.nanobind::dlpack::device", i32, %"struct.nanobind::dlpack::dtype", ptr, ptr, i64 }
%"struct.nanobind::dlpack::device" = type { i32, i32 }
%class.anon.220 = type { i8 }
%"struct.nanobind::detail::tuple.222" = type { %"struct.nanobind::detail::type_caster.223" }
%"struct.nanobind::detail::type_caster.223" = type { %"class.nanobind::ndarray.224" }
%"class.nanobind::ndarray.224" = type { ptr, %"struct.nanobind::dlpack::dltensor" }

@_Py_NoneStruct = external global %struct._object, align 8

; Function Attrs: inlinehint mustprogress nounwind optsize uwtable
define linkonce_odr hidden void @_ZN8nanobind6dlpack5dtypeC2Ev(ptr noundef nonnull align 2 dereferenceable(4) %0) unnamed_addr #11 comdat align 2 {
  %2 = alloca ptr, align 8
  store ptr %0, ptr %2, align 8, !tbaa !152
  %3 = load ptr, ptr %2, align 8
  %4 = getelementptr inbounds nuw %"struct.nanobind::dlpack::dtype", ptr %3, i32 0, i32 0
  store i8 0, ptr %4, align 2, !tbaa !154
  %5 = getelementptr inbounds nuw %"struct.nanobind::dlpack::dtype", ptr %3, i32 0, i32 1
  store i8 0, ptr %5, align 1, !tbaa !155
  %6 = getelementptr inbounds nuw %"struct.nanobind::dlpack::dtype", ptr %3, i32 0, i32 2
  store i16 0, ptr %6, align 2, !tbaa !156
  ret void
}

; Function Attrs: inlinehint mustprogress nounwind optsize uwtable
define linkonce_odr hidden void @_ZN8nanobind6dlpack6deviceC2Ev(ptr noundef nonnull align 4 dereferenceable(8) %0) unnamed_addr #11 comdat align 2 {
  %2 = alloca ptr, align 8
  store ptr %0, ptr %2, align 8, !tbaa !148
  %3 = load ptr, ptr %2, align 8
  %4 = getelementptr inbounds nuw %"struct.nanobind::dlpack::device", ptr %3, i32 0, i32 0
  store i32 0, ptr %4, align 4, !tbaa !150
  %5 = getelementptr inbounds nuw %"struct.nanobind::dlpack::device", ptr %3, i32 0, i32 1
  store i32 0, ptr %5, align 4, !tbaa !151
  ret void
}

; Function Attrs: inlinehint mustprogress nounwind optsize uwtable
define linkonce_odr hidden void @_ZN8nanobind6dlpack8dltensorC2Ev(ptr noundef nonnull align 8 dereferenceable(48) %0) unnamed_addr #11 comdat align 2 {
  %2 = alloca ptr, align 8
  store ptr %0, ptr %2, align 8, !tbaa !141
  %3 = load ptr, ptr %2, align 8
  %4 = getelementptr inbounds nuw %"struct.nanobind::dlpack::dltensor", ptr %3, i32 0, i32 0
  store ptr null, ptr %4, align 8, !tbaa !143
  %5 = getelementptr inbounds nuw %"struct.nanobind::dlpack::dltensor", ptr %3, i32 0, i32 1
  call void @_ZN8nanobind6dlpack6deviceC2Ev(ptr noundef nonnull align 4 dereferenceable(8) %5) #23
  %6 = getelementptr inbounds nuw %"struct.nanobind::dlpack::dltensor", ptr %3, i32 0, i32 2
  store i32 0, ptr %6, align 8, !tbaa !144
  %7 = getelementptr inbounds nuw %"struct.nanobind::dlpack::dltensor", ptr %3, i32 0, i32 3
  call void @_ZN8nanobind6dlpack5dtypeC2Ev(ptr noundef nonnull align 2 dereferenceable(4) %7) #23
  %8 = getelementptr inbounds nuw %"struct.nanobind::dlpack::dltensor", ptr %3, i32 0, i32 4
  store ptr null, ptr %8, align 8, !tbaa !145
  %9 = getelementptr inbounds nuw %"struct.nanobind::dlpack::dltensor", ptr %3, i32 0, i32 5
  store ptr null, ptr %9, align 8, !tbaa !146
  %10 = getelementptr inbounds nuw %"struct.nanobind::dlpack::dltensor", ptr %3, i32 0, i32 6
  store i64 0, ptr %10, align 8, !tbaa !147
  ret void
}

; Function Attrs: mustprogress nounwind optsize uwtable
define linkonce_odr hidden void @_ZN8nanobind7ndarrayIJSt7complexIfEEED2Ev(ptr noundef nonnull align 8 dereferenceable(56) %0) unnamed_addr #8 comdat align 2 {
  %2 = alloca ptr, align 8
  store ptr %0, ptr %2, align 8, !tbaa !299
  %3 = load ptr, ptr %2, align 8
  %4 = getelementptr inbounds nuw %"class.nanobind::ndarray.224", ptr %3, i32 0, i32 0
  %5 = load ptr, ptr %4, align 8, !tbaa !301
  call void @_ZN8nanobind6detail15ndarray_dec_refEPNS0_14ndarray_handleE(ptr noundef %5) #23
  ret void
}

; Function Attrs: mustprogress nounwind optsize uwtable
define linkonce_odr hidden void @_ZN8nanobind7ndarrayIJSt7complexIfEEEC2Ev(ptr noundef nonnull align 8 dereferenceable(56) %0) unnamed_addr #8 comdat align 2 {
  %2 = alloca ptr, align 8
  store ptr %0, ptr %2, align 8, !tbaa !299
  %3 = load ptr, ptr %2, align 8
  %4 = getelementptr inbounds nuw %"class.nanobind::ndarray.224", ptr %3, i32 0, i32 0
  store ptr null, ptr %4, align 8, !tbaa !301
  %5 = getelementptr inbounds nuw %"class.nanobind::ndarray.224", ptr %3, i32 0, i32 1
  call void @_ZN8nanobind6dlpack8dltensorC2Ev(ptr noundef nonnull align 8 dereferenceable(48) %5) #23
  ret void
}

; Function Attrs: inlinehint mustprogress nounwind optsize uwtable
define linkonce_odr hidden void @_ZN8nanobind6detail11type_casterINS_7ndarrayIJSt7complexIfEEEEiED2Ev(ptr noundef nonnull align 8 dereferenceable(56) %0) unnamed_addr #11 comdat align 2 {
  %2 = alloca ptr, align 8
  store ptr %0, ptr %2, align 8, !tbaa !297
  %3 = load ptr, ptr %2, align 8
  %4 = getelementptr inbounds nuw %"struct.nanobind::detail::type_caster.223", ptr %3, i32 0, i32 0
  call void @_ZN8nanobind7ndarrayIJSt7complexIfEEED2Ev(ptr noundef nonnull align 8 dereferenceable(56) %4) #23
  ret void
}

; Function Attrs: inlinehint mustprogress nounwind optsize uwtable
define linkonce_odr hidden void @_ZN8nanobind6detail11type_casterINS_7ndarrayIJSt7complexIfEEEEiEC2Ev(ptr noundef nonnull align 8 dereferenceable(56) %0) unnamed_addr #11 comdat align 2 {
  %2 = alloca ptr, align 8
  store ptr %0, ptr %2, align 8, !tbaa !297
  %3 = load ptr, ptr %2, align 8
  %4 = getelementptr inbounds nuw %"struct.nanobind::detail::type_caster.223", ptr %3, i32 0, i32 0
  call void @_ZN8nanobind7ndarrayIJSt7complexIfEEEC2Ev(ptr noundef nonnull align 8 dereferenceable(56) %4) #23
  ret void
}

; Function Attrs: inlinehint mustprogress nounwind optsize uwtable
define linkonce_odr hidden void @_ZN8nanobind6detail5tupleIJNS0_11type_casterINS_7ndarrayIJSt7complexIfEEEEiEEEED2Ev(ptr noundef nonnull align 8 dereferenceable(56) %0) unnamed_addr #11 comdat align 2 {
  %2 = alloca ptr, align 8
  store ptr %0, ptr %2, align 8, !tbaa !295
  %3 = load ptr, ptr %2, align 8
  %4 = getelementptr inbounds nuw %"struct.nanobind::detail::tuple.222", ptr %3, i32 0, i32 0
  call void @_ZN8nanobind6detail11type_casterINS_7ndarrayIJSt7complexIfEEEEiED2Ev(ptr noundef nonnull align 8 dereferenceable(56) %4) #23
  ret void
}

; Function Attrs: inlinehint mustprogress nounwind optsize uwtable
define internal void @_ZL10_Py_INCREFP7_object(ptr noundef %0) #11 {
  %2 = alloca ptr, align 8
  store ptr %0, ptr %2, align 8, !tbaa !3
  %3 = load ptr, ptr %2, align 8, !tbaa !3
  %4 = getelementptr inbounds nuw %struct._object, ptr %3, i32 0, i32 0
  %5 = load i64, ptr %4, align 8, !tbaa !23
  %6 = add nsw i64 %5, 1
  store i64 %6, ptr %4, align 8, !tbaa !23
  ret void
}

; Function Attrs: inlinehint mustprogress nounwind optsize uwtable
define internal void @"_ZZL30nanobind_init_test_ndarray_extRN8nanobind7module_EENK4$_12clERKNS_7ndarrayIJSt7complexIfEEEE"(ptr noundef nonnull align 1 dereferenceable(1) %0, ptr noundef nonnull align 8 dereferenceable(56) %1) #11 align 2 {
  %3 = alloca ptr, align 8
  %4 = alloca ptr, align 8
  store ptr %0, ptr %3, align 8, !tbaa !29
  store ptr %1, ptr %4, align 8, !tbaa !299
  ret void
}

; Function Attrs: mustprogress nounwind optsize uwtable
define linkonce_odr hidden noundef nonnull align 8 dereferenceable(56) ptr @_ZN8nanobind6detail11type_casterINS_7ndarrayIJSt7complexIfEEEEiEcvRS5_Ev(ptr noundef nonnull align 8 dereferenceable(56) %0) #8 comdat align 2 {
  %2 = alloca ptr, align 8
  store ptr %0, ptr %2, align 8, !tbaa !297
  %3 = load ptr, ptr %2, align 8
  %4 = getelementptr inbounds nuw %"struct.nanobind::detail::type_caster.223", ptr %3, i32 0, i32 0
  ret ptr %4
}

; Function Attrs: alwaysinline mustprogress nounwind optsize uwtable
define linkonce_odr hidden void @_ZN8nanobind6handleC2EPK7_object(ptr noundef nonnull align 8 dereferenceable(8) %0, ptr noundef %1) unnamed_addr #5 comdat align 2 {
  %3 = alloca ptr, align 8
  %4 = alloca ptr, align 8
  store ptr %0, ptr %3, align 8, !tbaa !12
  store ptr %1, ptr %4, align 8, !tbaa !3
  %5 = load ptr, ptr %3, align 8
  %6 = getelementptr inbounds nuw %"class.nanobind::handle", ptr %5, i32 0, i32 0
  %7 = load ptr, ptr %4, align 8, !tbaa !3
  store ptr %7, ptr %6, align 8, !tbaa !14
  ret void
}

; Function Attrs: alwaysinline mustprogress nounwind optsize uwtable
define linkonce_odr hidden noundef nonnull align 8 dereferenceable(56) ptr @_ZN8nanobind6detail5tupleIJNS0_11type_casterINS_7ndarrayIJSt7complexIfEEEEiEEEE3getILm0EEERDav(ptr noundef nonnull align 8 dereferenceable(56) %0) #5 comdat align 2 {
  %2 = alloca ptr, align 8
  store ptr %0, ptr %2, align 8, !tbaa !295
  %3 = load ptr, ptr %2, align 8
  %4 = getelementptr inbounds nuw %"struct.nanobind::detail::tuple.222", ptr %3, i32 0, i32 0
  ret ptr %4
}

; Function Attrs: mustprogress nounwind optsize uwtable
define linkonce_odr hidden void @_ZN8nanobind6detail5tupleIJNS0_11type_casterINS_7ndarrayIJSt7complexIfEEEEiEEEEC2Ev(ptr noundef nonnull align 8 dereferenceable(56) %0) unnamed_addr #8 comdat align 2 {
  %2 = alloca ptr, align 8
  store ptr %0, ptr %2, align 8, !tbaa !295
  %3 = load ptr, ptr %2, align 8
  %4 = getelementptr inbounds nuw %"struct.nanobind::detail::tuple.222", ptr %3, i32 0, i32 0
  call void @_ZN8nanobind6detail11type_casterINS_7ndarrayIJSt7complexIfEEEEiEC2Ev(ptr noundef nonnull align 8 dereferenceable(56) %4) #23
  ret void
}

; Function Attrs: alwaysinline mustprogress optsize uwtable
define internal noundef ptr @"_ZZN8nanobind6detail11func_createILb0ELb1EZL30nanobind_init_test_ndarray_extRNS_7module_EE4$_12vJRKNS_7ndarrayIJSt7complexIfEEEEEJLm0EEJNS_5scopeENS_4nameENS_3argEEEEP7_objectOT1_PFT2_DpT3_ESt16integer_sequenceImJXspT4_EEEDpRKT5_ENKUlPvPSF_PhNS_9rv_policyEPNS0_12cleanup_listEE_clEST_SU_SV_SW_SY_"(ptr noundef nonnull align 1 dereferenceable(1) %0, ptr noundef %1, ptr noundef %2, ptr noundef %3, i32 noundef %4, ptr noundef %5) #3 align 2 personality ptr @__gxx_personality_v0 {
  %7 = alloca ptr, align 8
  %8 = alloca ptr, align 8
  %9 = alloca ptr, align 8
  %10 = alloca ptr, align 8
  %11 = alloca ptr, align 8
  %12 = alloca i32, align 4
  %13 = alloca ptr, align 8
  %14 = alloca ptr, align 8
  %15 = alloca %"struct.nanobind::detail::tuple.222", align 8
  %16 = alloca ptr, align 8
  %17 = alloca i32, align 4
  %18 = alloca %"class.nanobind::handle", align 8
  %19 = alloca i32, align 4
  %20 = alloca ptr, align 8
  store ptr %0, ptr %8, align 8, !tbaa !29
  store ptr %1, ptr %9, align 8, !tbaa !29
  store ptr %2, ptr %10, align 8, !tbaa !125
  store ptr %3, ptr %11, align 8, !tbaa !27
  store i32 %4, ptr %12, align 4, !tbaa !18
  store ptr %5, ptr %13, align 8, !tbaa !127
  call void @llvm.lifetime.start.p0(i64 8, ptr %14) #22
  %21 = load ptr, ptr %9, align 8, !tbaa !29
  store ptr %21, ptr %14, align 8, !tbaa !291
  call void @llvm.lifetime.start.p0(i64 56, ptr %15) #22
  call void @_ZN8nanobind6detail5tupleIJNS0_11type_casterINS_7ndarrayIJSt7complexIfEEEEiEEEEC2Ev(ptr noundef nonnull align 8 dereferenceable(56) %15) #23
  %22 = invoke noundef nonnull align 8 dereferenceable(56) ptr @_ZN8nanobind6detail5tupleIJNS0_11type_casterINS_7ndarrayIJSt7complexIfEEEEiEEEE3getILm0EEERDav(ptr noundef nonnull align 8 dereferenceable(56) %15) #21
          to label %23 unwind label %36

23:                                               ; preds = %6
  %24 = load ptr, ptr %10, align 8, !tbaa !125
  %25 = getelementptr inbounds nuw ptr, ptr %24, i64 0
  %26 = load ptr, ptr %25, align 8, !tbaa !3
  invoke void @_ZN8nanobind6handleC2EPK7_object(ptr noundef nonnull align 8 dereferenceable(8) %18, ptr noundef %26) #21
          to label %27 unwind label %36

27:                                               ; preds = %23
  %28 = load ptr, ptr %11, align 8, !tbaa !27
  %29 = getelementptr inbounds nuw i8, ptr %28, i64 0
  %30 = load i8, ptr %29, align 1, !tbaa !20
  %31 = load ptr, ptr %13, align 8, !tbaa !127
  %32 = getelementptr inbounds nuw %"class.nanobind::handle", ptr %18, i32 0, i32 0
  %33 = load ptr, ptr %32, align 8
  %34 = call noundef zeroext i1 @_ZN8nanobind6detail11type_casterINS_7ndarrayIJSt7complexIfEEEEiE11from_pythonENS_6handleEhPNS0_12cleanup_listE(ptr noundef nonnull align 8 dereferenceable(56) %22, ptr %33, i8 noundef zeroext %30, ptr noundef %31) #23
  br i1 %34, label %40, label %35

35:                                               ; preds = %27
  store ptr inttoptr (i64 1 to ptr), ptr %7, align 8
  store i32 1, ptr %19, align 4
  br label %53

36:                                               ; preds = %23, %6
  %37 = landingpad { ptr, i32 }
          cleanup
  %38 = extractvalue { ptr, i32 } %37, 0
  store ptr %38, ptr %16, align 8
  %39 = extractvalue { ptr, i32 } %37, 1
  store i32 %39, ptr %17, align 4
  br label %55

40:                                               ; preds = %27
  call void @llvm.lifetime.start.p0(i64 8, ptr %20) #22
  %41 = load ptr, ptr %14, align 8, !tbaa !291
  %42 = invoke noundef nonnull align 8 dereferenceable(56) ptr @_ZN8nanobind6detail5tupleIJNS0_11type_casterINS_7ndarrayIJSt7complexIfEEEEiEEEE3getILm0EEERDav(ptr noundef nonnull align 8 dereferenceable(56) %15) #21
          to label %43 unwind label %49

43:                                               ; preds = %40
  %44 = invoke noundef nonnull align 8 dereferenceable(56) ptr @_ZN8nanobind6detail11type_casterINS_7ndarrayIJSt7complexIfEEEEiEcvRS5_Ev(ptr noundef nonnull align 8 dereferenceable(56) %42) #21
          to label %45 unwind label %49

45:                                               ; preds = %43
  invoke void @"_ZZL30nanobind_init_test_ndarray_extRN8nanobind7module_EENK4$_12clERKNS_7ndarrayIJSt7complexIfEEEE"(ptr noundef nonnull align 1 dereferenceable(1) %41, ptr noundef nonnull align 8 dereferenceable(56) %44) #21
          to label %46 unwind label %49

46:                                               ; preds = %45
  store ptr @_Py_NoneStruct, ptr %20, align 8, !tbaa !3
  %47 = load ptr, ptr %20, align 8, !tbaa !3
  call void @_ZL10_Py_INCREFP7_object(ptr noundef %47) #21
  %48 = load ptr, ptr %20, align 8, !tbaa !3
  store ptr %48, ptr %7, align 8
  store i32 1, ptr %19, align 4
  call void @llvm.lifetime.end.p0(i64 8, ptr %20) #22
  br label %53

49:                                               ; preds = %45, %43, %40
  %50 = landingpad { ptr, i32 }
          cleanup
  %51 = extractvalue { ptr, i32 } %50, 0
  store ptr %51, ptr %16, align 8
  %52 = extractvalue { ptr, i32 } %50, 1
  store i32 %52, ptr %17, align 4
  call void @llvm.lifetime.end.p0(i64 8, ptr %20) #22
  br label %55

53:                                               ; preds = %46, %35
  call void @_ZN8nanobind6detail5tupleIJNS0_11type_casterINS_7ndarrayIJSt7complexIfEEEEiEEEED2Ev(ptr noundef nonnull align 8 dereferenceable(56) %15) #23
  call void @llvm.lifetime.end.p0(i64 56, ptr %15) #22
  call void @llvm.lifetime.end.p0(i64 8, ptr %14) #22
  %54 = load ptr, ptr %7, align 8
  ret ptr %54

55:                                               ; preds = %49, %36
  call void @_ZN8nanobind6detail5tupleIJNS0_11type_casterINS_7ndarrayIJSt7complexIfEEEEiEEEED2Ev(ptr noundef nonnull align 8 dereferenceable(56) %15) #23
  call void @llvm.lifetime.end.p0(i64 56, ptr %15) #22
  call void @llvm.lifetime.end.p0(i64 8, ptr %14) #22
  br label %56

56:                                               ; preds = %55
  %57 = load ptr, ptr %16, align 8
  %58 = load i32, ptr %17, align 4
  %59 = insertvalue { ptr, i32 } poison, ptr %57, 0
  %60 = insertvalue { ptr, i32 } %59, i32 %58, 1
  resume { ptr, i32 } %60
}

; Function Attrs: inlinehint mustprogress optsize uwtable
define internal noundef ptr @"_ZZN8nanobind6detail11func_createILb0ELb1EZL30nanobind_init_test_ndarray_extRNS_7module_EE4$_12vJRKNS_7ndarrayIJSt7complexIfEEEEEJLm0EEJNS_5scopeENS_4nameENS_3argEEEEP7_objectOT1_PFT2_DpT3_ESt16integer_sequenceImJXspT4_EEEDpRKT5_ENUlPvPSF_PhNS_9rv_policyEPNS0_12cleanup_listEE_8__invokeEST_SU_SV_SW_SY_"(ptr noundef %0, ptr noundef %1, ptr noundef %2, i32 noundef %3, ptr noundef %4) #9 align 2 {
  %6 = alloca ptr, align 8
  %7 = alloca ptr, align 8
  %8 = alloca ptr, align 8
  %9 = alloca i32, align 4
  %10 = alloca ptr, align 8
  %11 = alloca %class.anon.220, align 1
  store ptr %0, ptr %6, align 8, !tbaa !29
  store ptr %1, ptr %7, align 8, !tbaa !125
  store ptr %2, ptr %8, align 8, !tbaa !27
  store i32 %3, ptr %9, align 4, !tbaa !18
  store ptr %4, ptr %10, align 8, !tbaa !127
  %12 = load ptr, ptr %6, align 8, !tbaa !29
  %13 = load ptr, ptr %7, align 8, !tbaa !125
  %14 = load ptr, ptr %8, align 8, !tbaa !27
  %15 = load i32, ptr %9, align 4, !tbaa !18
  %16 = load ptr, ptr %10, align 8, !tbaa !127
  %17 = call noundef ptr @"_ZZN8nanobind6detail11func_createILb0ELb1EZL30nanobind_init_test_ndarray_extRNS_7module_EE4$_12vJRKNS_7ndarrayIJSt7complexIfEEEEEJLm0EEJNS_5scopeENS_4nameENS_3argEEEEP7_objectOT1_PFT2_DpT3_ESt16integer_sequenceImJXspT4_EEEDpRKT5_ENKUlPvPSF_PhNS_9rv_policyEPNS0_12cleanup_listEE_clEST_SU_SV_SW_SY_"(ptr noundef nonnull align 1 dereferenceable(1) %11, ptr noundef %12, ptr noundef %13, ptr noundef %14, i32 noundef %15, ptr noundef %16) #21
  ret ptr %17
}